target datalayout = "e-m:e-p270:32:32-p271:32:32-p272:64:64-i64:64-i128:128-f80:128-n8:16:32:64-S128"
target triple = "x86_64-pc-linux-gnu"

%struct.Vec_Int_t_ = type { i32, i32, ptr }

; Function Attrs: nounwind uwtable
define internal void @Vec_IntPushMem(ptr noundef %0, ptr noundef %1, i32 noundef %2) #0 {
  %4 = alloca ptr, align 8
  %5 = alloca ptr, align 8
  %6 = alloca i32, align 4
  %7 = alloca ptr, align 8
  %8 = alloca i32, align 4
  store ptr %0, ptr %4, align 8
  store ptr %1, ptr %5, align 8
  store i32 %2, ptr %6, align 4
  %9 = load ptr, ptr %5, align 8
  %10 = getelementptr inbounds %struct.Vec_Int_t_, ptr %9, i32 0, i32 1
  %11 = load i32, ptr %10, align 4
  %12 = load ptr, ptr %5, align 8
  %13 = getelementptr inbounds %struct.Vec_Int_t_, ptr %12, i32 0, i32 0
  %14 = load i32, ptr %13, align 8
  %15 = icmp eq i32 %11, %14
  br i1 %15, label %16, label %103

16:                                               ; preds = %3
  %17 = load ptr, ptr %5, align 8
  %18 = getelementptr inbounds %struct.Vec_Int_t_, ptr %17, i32 0, i32 1
  %19 = load i32, ptr %18, align 4
  %20 = icmp eq i32 %19, 0
  br i1 %20, label %21, label %24

21:                                               ; preds = %16
  %22 = load ptr, ptr %5, align 8
  %23 = getelementptr inbounds %struct.Vec_Int_t_, ptr %22, i32 0, i32 0
  store i32 1, ptr %23, align 8
  br label %24

24:                                               ; preds = %21, %16
  %25 = load ptr, ptr %4, align 8
  %26 = icmp ne ptr %25, null
  br i1 %26, label %27, label %34

27:                                               ; preds = %24
  %28 = load ptr, ptr %4, align 8
  %29 = load ptr, ptr %5, align 8
  %30 = getelementptr inbounds %struct.Vec_Int_t_, ptr %29, i32 0, i32 0
  %31 = load i32, ptr %30, align 8
  %32 = mul nsw i32 %31, 8
  %33 = call ptr @Mem_StepEntryFetch(ptr noundef %28, i32 noundef %32)
  store ptr %33, ptr %7, align 8
  br label %42

34:                                               ; preds = %24
  %35 = load ptr, ptr %5, align 8
  %36 = getelementptr inbounds %struct.Vec_Int_t_, ptr %35, i32 0, i32 0
  %37 = load i32, ptr %36, align 8
  %38 = mul nsw i32 %37, 2
  %39 = sext i32 %38 to i64
  %40 = mul i64 4, %39
  %41 = call noalias ptr @malloc(i64 noundef %40) #4
  store ptr %41, ptr %7, align 8
  br label %42

42:                                               ; preds = %34, %27
  %43 = load ptr, ptr %5, align 8
  %44 = getelementptr inbounds %struct.Vec_Int_t_, ptr %43, i32 0, i32 2
  %45 = load ptr, ptr %44, align 8
  %46 = icmp ne ptr %45, null
  br i1 %46, label %47, label %95

47:                                               ; preds = %42
  store i32 0, ptr %8, align 4
  br label %48

48:                                               ; preds = %66, %47
  %49 = load i32, ptr %8, align 4
  %50 = load ptr, ptr %5, align 8
  %51 = getelementptr inbounds %struct.Vec_Int_t_, ptr %50, i32 0, i32 1
  %52 = load i32, ptr %51, align 4
  %53 = icmp slt i32 %49, %52
  br i1 %53, label %54, label %69

54:                                               ; preds = %48
  %55 = load ptr, ptr %5, align 8
  %56 = getelementptr inbounds %struct.Vec_Int_t_, ptr %55, i32 0, i32 2
  %57 = load ptr, ptr %56, align 8
  %58 = load i32, ptr %8, align 4
  %59 = sext i32 %58 to i64
  %60 = getelementptr inbounds i32, ptr %57, i64 %59
  %61 = load i32, ptr %60, align 4
  %62 = load ptr, ptr %7, align 8
  %63 = load i32, ptr %8, align 4
  %64 = sext i32 %63 to i64
  %65 = getelementptr inbounds i32, ptr %62, i64 %64
  store i32 %61, ptr %65, align 4
  br label %66

66:                                               ; preds = %54
  %67 = load i32, ptr %8, align 4
  %68 = add nsw i32 %67, 1
  store i32 %68, ptr %8, align 4
  br label %48, !llvm.loop !4

69:                                               ; preds = %48
  %70 = load ptr, ptr %4, align 8
  %71 = icmp ne ptr %70, null
  br i1 %71, label %72, label %81

72:                                               ; preds = %69
  %73 = load ptr, ptr %4, align 8
  %74 = load ptr, ptr %5, align 8
  %75 = getelementptr inbounds %struct.Vec_Int_t_, ptr %74, i32 0, i32 2
  %76 = load ptr, ptr %75, align 8
  %77 = load ptr, ptr %5, align 8
  %78 = getelementptr inbounds %struct.Vec_Int_t_, ptr %77, i32 0, i32 0
  %79 = load i32, ptr %78, align 8
  %80 = mul nsw i32 %79, 4
  call void @Mem_StepEntryRecycle(ptr noundef %73, ptr noundef %76, i32 noundef %80)
  br label %94

81:                                               ; preds = %69
  %82 = load ptr, ptr %5, align 8
  %83 = getelementptr inbounds %struct.Vec_Int_t_, ptr %82, i32 0, i32 2
  %84 = load ptr, ptr %83, align 8
  %85 = icmp ne ptr %84, null
  br i1 %85, label %86, label %92

86:                                               ; preds = %81
  %87 = load ptr, ptr %5, align 8
  %88 = getelementptr inbounds %struct.Vec_Int_t_, ptr %87, i32 0, i32 2
  %89 = load ptr, ptr %88, align 8
  call void @free(ptr noundef %89) #5
  %90 = load ptr, ptr %5, align 8
  %91 = getelementptr inbounds %struct.Vec_Int_t_, ptr %90, i32 0, i32 2
  store ptr null, ptr %91, align 8
  br label %93

92:                                               ; preds = %81
  br label %93

93:                                               ; preds = %92, %86
  br label %94

94:                                               ; preds = %93, %72
  br label %95

95:                                               ; preds = %94, %42
  %96 = load ptr, ptr %5, align 8
  %97 = getelementptr inbounds %struct.Vec_Int_t_, ptr %96, i32 0, i32 0
  %98 = load i32, ptr %97, align 8
  %99 = mul nsw i32 %98, 2
  store i32 %99, ptr %97, align 8
  %100 = load ptr, ptr %7, align 8
  %101 = load ptr, ptr %5, align 8
  %102 = getelementptr inbounds %struct.Vec_Int_t_, ptr %101, i32 0, i32 2
  store ptr %100, ptr %102, align 8
  br label %103

103:                                              ; preds = %95, %3
  %104 = load i32, ptr %6, align 4
  %105 = load ptr, ptr %5, align 8
  %106 = getelementptr inbounds %struct.Vec_Int_t_, ptr %105, i32 0, i32 2
  %107 = load ptr, ptr %106, align 8
  %108 = load ptr, ptr %5, align 8
  %109 = getelementptr inbounds %struct.Vec_Int_t_, ptr %108, i32 0, i32 1
  %110 = load i32, ptr %109, align 4
  %111 = add nsw i32 %110, 1
  store i32 %111, ptr %109, align 4
  %112 = sext i32 %110 to i64
  %113 = getelementptr inbounds i32, ptr %107, i64 %112
  store i32 %104, ptr %113, align 4
  ret void
}