; Function Attrs: nounwind uwtable
define internal fastcc void @Vec_IntPushMem(ptr noundef %0, ptr noundef captures(none) %1, i32 noundef %2) unnamed_addr #0 {
  %4 = getelementptr inbounds nuw i8, ptr %1, i64 4
  %5 = load i32, ptr %4, align 4
  %6 = load i32, ptr %1, align 8
  %7 = icmp eq i32 %5, %6
  br i1 %7, label %8, label %._crit_edge36

._crit_edge36:                                    ; preds = %3
  %.phi.trans.insert = getelementptr inbounds nuw i8, ptr %1, i64 8
  %.pre = load ptr, ptr %.phi.trans.insert, align 8
  br label %42

8:                                                ; preds = %3
  %9 = icmp eq i32 %5, 0
  br i1 %9, label %10, label %11

10:                                               ; preds = %8
  store i32 1, ptr %1, align 8
  br label %11

11:                                               ; preds = %10, %8
  %12 = phi i32 [ 1, %10 ], [ %5, %8 ]
  %.not = icmp eq ptr %0, null
  br i1 %.not, label %16, label %13

13:                                               ; preds = %11
  %14 = shl nsw i32 %12, 3
  %15 = tail call ptr @Mem_StepEntryFetch(ptr noundef nonnull %0, i32 noundef %14) #8
  br label %21

16:                                               ; preds = %11
  %17 = shl nsw i32 %12, 1
  %18 = sext i32 %17 to i64
  %19 = shl nsw i64 %18, 2
  %20 = tail call noalias ptr @malloc(i64 noundef %19) #9
  br label %21

21:                                               ; preds = %16, %13
  %.028 = phi ptr [ %15, %13 ], [ %20, %16 ]
  %22 = getelementptr inbounds nuw i8, ptr %1, i64 8
  %23 = load ptr, ptr %22, align 8
  %.not32 = icmp eq ptr %23, null
  br i1 %.not32, label %39, label %.preheader

.preheader:                                       ; preds = %21
  %24 = load i32, ptr %4, align 4
  %25 = icmp sgt i32 %24, 0
  br i1 %25, label %.lr.ph, label %._crit_edge

.lr.ph:                                           ; preds = %.preheader, %.lr.ph
  %indvars.iv = phi i64 [ %indvars.iv.next, %.lr.ph ], [ 0, %.preheader ]
  %26 = load ptr, ptr %22, align 8
  %27 = getelementptr inbounds nuw i32, ptr %26, i64 %indvars.iv
  %28 = load i32, ptr %27, align 4
  %29 = getelementptr inbounds nuw i32, ptr %.028, i64 %indvars.iv
  store i32 %28, ptr %29, align 4
  %indvars.iv.next = add nuw nsw i64 %indvars.iv, 1
  %30 = load i32, ptr %4, align 4
  %31 = sext i32 %30 to i64
  %32 = icmp slt i64 %indvars.iv.next, %31
  br i1 %32, label %.lr.ph, label %._crit_edge, !llvm.loop !4

._crit_edge:                                      ; preds = %.lr.ph, %.preheader
  %33 = load ptr, ptr %22, align 8
  br i1 %.not, label %37, label %34

34:                                               ; preds = %._crit_edge
  %35 = load i32, ptr %1, align 8
  %36 = shl nsw i32 %35, 2
  tail call void @Mem_StepEntryRecycle(ptr noundef nonnull %0, ptr noundef %33, i32 noundef %36) #8
  br label %39

37:                                               ; preds = %._crit_edge
  %.not33 = icmp eq ptr %33, null
  br i1 %.not33, label %39, label %38

38:                                               ; preds = %37
  tail call void @free(ptr noundef nonnull %33) #8
  br label %39

39:                                               ; preds = %34, %37, %38, %21
  %40 = load i32, ptr %1, align 8
  %41 = shl nsw i32 %40, 1
  store i32 %41, ptr %1, align 8
  store ptr %.028, ptr %22, align 8
  %.pre37 = load i32, ptr %4, align 4
  br label %42

42:                                               ; preds = %._crit_edge36, %39
  %43 = phi i32 [ %5, %._crit_edge36 ], [ %.pre37, %39 ]
  %44 = phi ptr [ %.pre, %._crit_edge36 ], [ %.028, %39 ]
  %45 = add nsw i32 %43, 1
  store i32 %45, ptr %4, align 4
  %46 = sext i32 %43 to i64
  %47 = getelementptr inbounds i32, ptr %44, i64 %46
  store i32 %2, ptr %47, align 4
  ret void
}